; ModuleID = '60/1388.c'
source_filename = "60/1388.c"
target datalayout = "e-m:e-p270:32:32-p271:32:32-p272:64:64-i64:64-f80:128-n8:16:32:64-S128"
target triple = "x86_64-pc-linux-gnu"

@.str = private unnamed_addr constant [3 x i8] c"%d\00", align 1
@.str.1 = private unnamed_addr constant [6 x i8] c"empty\00", align 1
@.str.2 = private unnamed_addr constant [7 x i8] c"%d %d\0A\00", align 1

; Function Attrs: noinline nounwind uwtable
define dso_local i32 @main() #0 {
  %1 = alloca i32, align 4
  %2 = alloca i32, align 4
  %3 = alloca i32, align 4
  %4 = alloca i32, align 4
  %5 = alloca i32, align 4
  %6 = alloca i32, align 4
  store i32 0, i32* %1, align 4
  %7 = call i32 (i8*, ...) @__isoc99_scanf(i8* getelementptr inbounds ([3 x i8], [3 x i8]* @.str, i64 0, i64 0), i32* %2)
  %8 = load i32, i32* %2, align 4
  %9 = icmp slt i32 %8, 5
  br i1 %9, label %10, label %12

10:                                               ; preds = %0
  %11 = call i32 (i8*, ...) @printf(i8* getelementptr inbounds ([6 x i8], [6 x i8]* @.str.1, i64 0, i64 0))
  br label %12

12:                                               ; preds = %10, %0
  %13 = load i32, i32* %2, align 4
  %14 = icmp sge i32 %13, 5
  br i1 %14, label %15, label %88

15:                                               ; preds = %12
  store i32 3, i32* %3, align 4
  br label %16

16:                                               ; preds = %84, %15
  %17 = load i32, i32* %3, align 4
  %18 = load i32, i32* %2, align 4
  %19 = icmp sle i32 %17, %18
  br i1 %19, label %20, label %87

20:                                               ; preds = %16
  store i32 2, i32* %4, align 4
  br label %21

21:                                               ; preds = %80, %20
  %22 = load i32, i32* %4, align 4
  %23 = load i32, i32* %3, align 4
  %24 = icmp slt i32 %22, %23
  br i1 %24, label %25, label %83

25:                                               ; preds = %21
  %26 = load i32, i32* %3, align 4
  %27 = load i32, i32* %4, align 4
  %28 = srem i32 %26, %27
  %29 = icmp eq i32 %28, 0
  br i1 %29, label %30, label %31

30:                                               ; preds = %25
  br label %83

31:                                               ; preds = %25
  %32 = load i32, i32* %4, align 4
  %33 = load i32, i32* %3, align 4
  %34 = sub nsw i32 %33, 1
  %35 = icmp eq i32 %32, %34
  br i1 %35, label %36, label %79

36:                                               ; preds = %31
  %37 = load i32, i32* %3, align 4
  %38 = load i32, i32* %4, align 4
  %39 = srem i32 %37, %38
  %40 = icmp ne i32 %39, 0
  br i1 %40, label %41, label %79

41:                                               ; preds = %36
  %42 = load i32, i32* %3, align 4
  %43 = add nsw i32 %42, 2
  store i32 %43, i32* %5, align 4
  store i32 2, i32* %6, align 4
  br label %44

44:                                               ; preds = %75, %41
  %45 = load i32, i32* %6, align 4
  %46 = load i32, i32* %5, align 4
  %47 = icmp slt i32 %45, %46
  br i1 %47, label %48, label %52

48:                                               ; preds = %44
  %49 = load i32, i32* %5, align 4
  %50 = load i32, i32* %2, align 4
  %51 = icmp sle i32 %49, %50
  br label %52

52:                                               ; preds = %48, %44
  %53 = phi i1 [ false, %44 ], [ %51, %48 ]
  br i1 %53, label %54, label %78

54:                                               ; preds = %52
  %55 = load i32, i32* %5, align 4
  %56 = load i32, i32* %6, align 4
  %57 = srem i32 %55, %56
  %58 = icmp eq i32 %57, 0
  br i1 %58, label %59, label %60

59:                                               ; preds = %54
  br label %78

60:                                               ; preds = %54
  %61 = load i32, i32* %6, align 4
  %62 = load i32, i32* %5, align 4
  %63 = sub nsw i32 %62, 1
  %64 = icmp eq i32 %61, %63
  br i1 %64, label %65, label %74

65:                                               ; preds = %60
  %66 = load i32, i32* %5, align 4
  %67 = load i32, i32* %6, align 4
  %68 = srem i32 %66, %67
  %69 = icmp ne i32 %68, 0
  br i1 %69, label %70, label %74

70:                                               ; preds = %65
  %71 = load i32, i32* %3, align 4
  %72 = load i32, i32* %5, align 4
  %73 = call i32 (i8*, ...) @printf(i8* getelementptr inbounds ([7 x i8], [7 x i8]* @.str.2, i64 0, i64 0), i32 %71, i32 %72)
  br label %74

74:                                               ; preds = %70, %65, %60
  br label %75

75:                                               ; preds = %74
  %76 = load i32, i32* %6, align 4
  %77 = add nsw i32 %76, 1
  store i32 %77, i32* %6, align 4
  br label %44

78:                                               ; preds = %59, %52
  br label %79

79:                                               ; preds = %78, %36, %31
  br label %80

80:                                               ; preds = %79
  %81 = load i32, i32* %4, align 4
  %82 = add nsw i32 %81, 1
  store i32 %82, i32* %4, align 4
  br label %21

83:                                               ; preds = %30, %21
  br label %84

84:                                               ; preds = %83
  %85 = load i32, i32* %3, align 4
  %86 = add nsw i32 %85, 1
  store i32 %86, i32* %3, align 4
  br label %16

87:                                               ; preds = %16
  br label %88

88:                                               ; preds = %87, %12
  %89 = load i32, i32* %1, align 4
  ret i32 %89
}

declare dso_local i32 @__isoc99_scanf(i8*, ...) #1

declare dso_local i32 @printf(i8*, ...) #1


!llvm.module.flags = !{!0}
!llvm.ident = !{!1}

!0 = !{i32 1, !"wchar_size", i32 4}
!1 = !{!"clang version 10.0.0-4ubuntu1 "}
